; Function Attrs: mustprogress uwtable
define noundef zeroext i1 @_ZNK32pxrInternal_v0_24__pxrReserved__12UsdSkelCache8PopulateERKNS_11UsdSkelRootENS_22Usd_PrimFlagsPredicateE(ptr nocapture noundef nonnull readonly align 8 dereferenceable(16) %0, ptr noundef nonnull align 8 dereferenceable(24) %1, ptr nocapture noundef readonly byval(%"class.pxrInternal_v0_24__pxrReserved__::Usd_PrimFlagsPredicate") align 8 %2) local_unnamed_addr #0 align 2 personality ptr @__gxx_personality_v0 {
  %4 = alloca %"struct.pxrInternal_v0_24__pxrReserved__::UsdSkel_CacheImpl::ReadScope", align 8
  %5 = load ptr, ptr %0, align 8
  call void @_ZN32pxrInternal_v0_24__pxrReserved__17UsdSkel_CacheImpl9ReadScopeC1EPS0_(ptr noundef nonnull align 8 dereferenceable(40) %4, ptr noundef %5)
  %6 = invoke noundef zeroext i1 @_ZN32pxrInternal_v0_24__pxrReserved__17UsdSkel_CacheImpl9ReadScope8PopulateERKNS_11UsdSkelRootENS_22Usd_PrimFlagsPredicateE(ptr noundef nonnull align 8 dereferenceable(40) %4, ptr noundef nonnull align 8 dereferenceable(24) %1, ptr noundef nonnull byval(%"class.pxrInternal_v0_24__pxrReserved__::Usd_PrimFlagsPredicate") align 8 %2)
          to label %7 unwind label %14

7:                                                ; preds = %3
  %8 = getelementptr inbounds nuw i8, ptr %4, i64 8
  %9 = load ptr, ptr %8, align 8
  %.not.i.i = icmp eq ptr %9, null
  br i1 %.not.i.i, label %_ZN32pxrInternal_v0_24__pxrReserved__17UsdSkel_CacheImpl9ReadScopeD2Ev.exit, label %10

10:                                               ; preds = %7
  invoke void @_ZN3tbb6detail2r17releaseERNS0_2d116queuing_rw_mutex11scoped_lockE(ptr noundef nonnull align 8 dereferenceable(27) %8)
          to label %_ZN32pxrInternal_v0_24__pxrReserved__17UsdSkel_CacheImpl9ReadScopeD2Ev.exit unwind label %11

11:                                               ; preds = %10
  %12 = landingpad { ptr, i32 }
          catch ptr null
  %13 = extractvalue { ptr, i32 } %12, 0
  call void @__clang_call_terminate(ptr %13) #17
  unreachable

_ZN32pxrInternal_v0_24__pxrReserved__17UsdSkel_CacheImpl9ReadScopeD2Ev.exit: ; preds = %7, %10
  ret i1 %6

14:                                               ; preds = %3
  %15 = landingpad { ptr, i32 }
          cleanup
  call void @_ZN32pxrInternal_v0_24__pxrReserved__17UsdSkel_CacheImpl9ReadScopeD2Ev(ptr noundef nonnull align 8 dereferenceable(40) %4) #18
  resume { ptr, i32 } %15
}